; ModuleID = 'source-C-CXX/9/578.cpp'
source_filename = "source-C-CXX/9/578.cpp"
target datalayout = "e-m:e-p270:32:32-p271:32:32-p272:64:64-i64:64-f80:128-n8:16:32:64-S128"
target triple = "x86_64-pc-linux-gnu"

%"class.std::ios_base::Init" = type { i8 }
%"class.std::basic_istream" = type { i32 (...)**, i64, %"class.std::basic_ios" }
%"class.std::basic_ios" = type { %"class.std::ios_base", %"class.std::basic_ostream"*, i8, i8, %"class.std::basic_streambuf"*, %"class.std::ctype"*, %"class.std::num_put"*, %"class.std::num_get"* }
%"class.std::ios_base" = type { i32 (...)**, i64, i64, i32, i32, i32, %"struct.std::ios_base::_Callback_list"*, %"struct.std::ios_base::_Words", [8 x %"struct.std::ios_base::_Words"], i32, %"struct.std::ios_base::_Words"*, %"class.std::locale" }
%"struct.std::ios_base::_Callback_list" = type { %"struct.std::ios_base::_Callback_list"*, void (i32, %"class.std::ios_base"*, i32)*, i32, i32 }
%"struct.std::ios_base::_Words" = type { i8*, i64 }
%"class.std::locale" = type { %"class.std::locale::_Impl"* }
%"class.std::locale::_Impl" = type { i32, %"class.std::locale::facet"**, i64, %"class.std::locale::facet"**, i8** }
%"class.std::locale::facet" = type <{ i32 (...)**, i32, [4 x i8] }>
%"class.std::basic_ostream" = type { i32 (...)**, %"class.std::basic_ios" }
%"class.std::basic_streambuf" = type { i32 (...)**, i8*, i8*, i8*, i8*, i8*, i8*, %"class.std::locale" }
%"class.std::ctype" = type <{ %"class.std::locale::facet.base", [4 x i8], %struct.__locale_struct*, i8, [7 x i8], i32*, i32*, i16*, i8, [256 x i8], [256 x i8], i8, [6 x i8] }>
%"class.std::locale::facet.base" = type <{ i32 (...)**, i32 }>
%struct.__locale_struct = type { [13 x %struct.__locale_data*], i16*, i32*, i32*, [13 x i8*] }
%struct.__locale_data = type opaque
%"class.std::num_put" = type { %"class.std::locale::facet.base", [4 x i8] }
%"class.std::num_get" = type { %"class.std::locale::facet.base", [4 x i8] }

@_ZStL8__ioinit = internal global %"class.std::ios_base::Init" zeroinitializer, align 1
@__dso_handle = external hidden global i8
@_ZSt3cin = external global %"class.std::basic_istream", align 8
@_ZSt4cout = external global %"class.std::basic_ostream", align 8
@llvm.global_ctors = appending global [1 x { i32, void ()*, i8* }] [{ i32, void ()*, i8* } { i32 65535, void ()* @_GLOBAL__sub_I_578.cpp, i8* null }]

declare void @_ZNSt8ios_base4InitC1Ev(%"class.std::ios_base::Init"* nonnull align 1 dereferenceable(1)) unnamed_addr #0

; Function Attrs: nounwind
declare void @_ZNSt8ios_base4InitD1Ev(%"class.std::ios_base::Init"* nonnull align 1 dereferenceable(1)) unnamed_addr #1

; Function Attrs: nofree nounwind
declare i32 @__cxa_atexit(void (i8*)*, i8*, i8*) local_unnamed_addr #2

; Function Attrs: mustprogress norecurse sspstrong uwtable
define dso_local i32 @main() local_unnamed_addr #3 {
  %1 = alloca i32, align 4
  %2 = bitcast i32* %1 to i8*
  call void @llvm.lifetime.start.p0i8(i64 4, i8* nonnull %2) #7
  %3 = call nonnull align 8 dereferenceable(16) %"class.std::basic_istream"* @_ZNSirsERi(%"class.std::basic_istream"* nonnull align 8 dereferenceable(16) @_ZSt3cin, i32* nonnull align 4 dereferenceable(4) %1)
  %4 = load i32, i32* %1, align 4, !tbaa !5
  %5 = zext i32 %4 to i64
  %6 = call i8* @llvm.stacksave()
  %7 = alloca i32, i64 %5, align 16
  %8 = load i32, i32* %1, align 4, !tbaa !5
  %9 = zext i32 %8 to i64
  %10 = alloca i32, i64 %9, align 16
  %11 = icmp sgt i32 %8, 0
  br i1 %11, label %12, label %116

12:                                               ; preds = %0
  %13 = icmp ult i32 %8, 8
  br i1 %13, label %83, label %14

14:                                               ; preds = %12
  %15 = and i64 %9, 4294967288
  %16 = add nsw i64 %15, -8
  %17 = lshr exact i64 %16, 3
  %18 = add nuw nsw i64 %17, 1
  %19 = and i64 %18, 7
  %20 = icmp ult i64 %16, 56
  br i1 %20, label %68, label %21

21:                                               ; preds = %14
  %22 = and i64 %18, 4611686018427387896
  br label %23

23:                                               ; preds = %23, %21
  %24 = phi i64 [ 0, %21 ], [ %65, %23 ]
  %25 = phi i64 [ %22, %21 ], [ %66, %23 ]
  %26 = getelementptr inbounds i32, i32* %10, i64 %24
  %27 = bitcast i32* %26 to <4 x i32>*
  store <4 x i32> <i32 1, i32 1, i32 1, i32 1>, <4 x i32>* %27, align 16, !tbaa !5
  %28 = getelementptr inbounds i32, i32* %26, i64 4
  %29 = bitcast i32* %28 to <4 x i32>*
  store <4 x i32> <i32 1, i32 1, i32 1, i32 1>, <4 x i32>* %29, align 16, !tbaa !5
  %30 = or i64 %24, 8
  %31 = getelementptr inbounds i32, i32* %10, i64 %30
  %32 = bitcast i32* %31 to <4 x i32>*
  store <4 x i32> <i32 1, i32 1, i32 1, i32 1>, <4 x i32>* %32, align 16, !tbaa !5
  %33 = getelementptr inbounds i32, i32* %31, i64 4
  %34 = bitcast i32* %33 to <4 x i32>*
  store <4 x i32> <i32 1, i32 1, i32 1, i32 1>, <4 x i32>* %34, align 16, !tbaa !5
  %35 = or i64 %24, 16
  %36 = getelementptr inbounds i32, i32* %10, i64 %35
  %37 = bitcast i32* %36 to <4 x i32>*
  store <4 x i32> <i32 1, i32 1, i32 1, i32 1>, <4 x i32>* %37, align 16, !tbaa !5
  %38 = getelementptr inbounds i32, i32* %36, i64 4
  %39 = bitcast i32* %38 to <4 x i32>*
  store <4 x i32> <i32 1, i32 1, i32 1, i32 1>, <4 x i32>* %39, align 16, !tbaa !5
  %40 = or i64 %24, 24
  %41 = getelementptr inbounds i32, i32* %10, i64 %40
  %42 = bitcast i32* %41 to <4 x i32>*
  store <4 x i32> <i32 1, i32 1, i32 1, i32 1>, <4 x i32>* %42, align 16, !tbaa !5
  %43 = getelementptr inbounds i32, i32* %41, i64 4
  %44 = bitcast i32* %43 to <4 x i32>*
  store <4 x i32> <i32 1, i32 1, i32 1, i32 1>, <4 x i32>* %44, align 16, !tbaa !5
  %45 = or i64 %24, 32
  %46 = getelementptr inbounds i32, i32* %10, i64 %45
  %47 = bitcast i32* %46 to <4 x i32>*
  store <4 x i32> <i32 1, i32 1, i32 1, i32 1>, <4 x i32>* %47, align 16, !tbaa !5
  %48 = getelementptr inbounds i32, i32* %46, i64 4
  %49 = bitcast i32* %48 to <4 x i32>*
  store <4 x i32> <i32 1, i32 1, i32 1, i32 1>, <4 x i32>* %49, align 16, !tbaa !5
  %50 = or i64 %24, 40
  %51 = getelementptr inbounds i32, i32* %10, i64 %50
  %52 = bitcast i32* %51 to <4 x i32>*
  store <4 x i32> <i32 1, i32 1, i32 1, i32 1>, <4 x i32>* %52, align 16, !tbaa !5
  %53 = getelementptr inbounds i32, i32* %51, i64 4
  %54 = bitcast i32* %53 to <4 x i32>*
  store <4 x i32> <i32 1, i32 1, i32 1, i32 1>, <4 x i32>* %54, align 16, !tbaa !5
  %55 = or i64 %24, 48
  %56 = getelementptr inbounds i32, i32* %10, i64 %55
  %57 = bitcast i32* %56 to <4 x i32>*
  store <4 x i32> <i32 1, i32 1, i32 1, i32 1>, <4 x i32>* %57, align 16, !tbaa !5
  %58 = getelementptr inbounds i32, i32* %56, i64 4
  %59 = bitcast i32* %58 to <4 x i32>*
  store <4 x i32> <i32 1, i32 1, i32 1, i32 1>, <4 x i32>* %59, align 16, !tbaa !5
  %60 = or i64 %24, 56
  %61 = getelementptr inbounds i32, i32* %10, i64 %60
  %62 = bitcast i32* %61 to <4 x i32>*
  store <4 x i32> <i32 1, i32 1, i32 1, i32 1>, <4 x i32>* %62, align 16, !tbaa !5
  %63 = getelementptr inbounds i32, i32* %61, i64 4
  %64 = bitcast i32* %63 to <4 x i32>*
  store <4 x i32> <i32 1, i32 1, i32 1, i32 1>, <4 x i32>* %64, align 16, !tbaa !5
  %65 = add nuw i64 %24, 64
  %66 = add i64 %25, -8
  %67 = icmp eq i64 %66, 0
  br i1 %67, label %68, label %23, !llvm.loop !9

68:                                               ; preds = %23, %14
  %69 = phi i64 [ 0, %14 ], [ %65, %23 ]
  %70 = icmp eq i64 %19, 0
  br i1 %70, label %81, label %71

71:                                               ; preds = %68, %71
  %72 = phi i64 [ %78, %71 ], [ %69, %68 ]
  %73 = phi i64 [ %79, %71 ], [ %19, %68 ]
  %74 = getelementptr inbounds i32, i32* %10, i64 %72
  %75 = bitcast i32* %74 to <4 x i32>*
  store <4 x i32> <i32 1, i32 1, i32 1, i32 1>, <4 x i32>* %75, align 16, !tbaa !5
  %76 = getelementptr inbounds i32, i32* %74, i64 4
  %77 = bitcast i32* %76 to <4 x i32>*
  store <4 x i32> <i32 1, i32 1, i32 1, i32 1>, <4 x i32>* %77, align 16, !tbaa !5
  %78 = add nuw i64 %72, 8
  %79 = add i64 %73, -1
  %80 = icmp eq i64 %79, 0
  br i1 %80, label %81, label %71, !llvm.loop !12

81:                                               ; preds = %71, %68
  %82 = icmp eq i64 %15, %9
  br i1 %82, label %85, label %83

83:                                               ; preds = %12, %81
  %84 = phi i64 [ 0, %12 ], [ %15, %81 ]
  br label %86

85:                                               ; preds = %86, %81
  br i1 %11, label %100, label %116

86:                                               ; preds = %83, %86
  %87 = phi i64 [ %89, %86 ], [ %84, %83 ]
  %88 = getelementptr inbounds i32, i32* %10, i64 %87
  store i32 1, i32* %88, align 4, !tbaa !5
  %89 = add nuw nsw i64 %87, 1
  %90 = icmp eq i64 %89, %9
  br i1 %90, label %85, label %86, !llvm.loop !14

91:                                               ; preds = %100
  %92 = icmp sgt i32 %105, 1
  br i1 %92, label %93, label %116

93:                                               ; preds = %91
  %94 = add nsw i32 %105, -1
  %95 = zext i32 %105 to i64
  %96 = add nsw i64 %95, -1
  %97 = add nsw i32 %105, -2
  %98 = zext i32 %97 to i64
  %99 = zext i32 %94 to i64
  br label %108

100:                                              ; preds = %85, %100
  %101 = phi i64 [ %104, %100 ], [ 0, %85 ]
  %102 = getelementptr inbounds i32, i32* %7, i64 %101
  %103 = call nonnull align 8 dereferenceable(16) %"class.std::basic_istream"* @_ZNSirsERi(%"class.std::basic_istream"* nonnull align 8 dereferenceable(16) @_ZSt3cin, i32* nonnull align 4 dereferenceable(4) %102)
  %104 = add nuw nsw i64 %101, 1
  %105 = load i32, i32* %1, align 4, !tbaa !5
  %106 = sext i32 %105 to i64
  %107 = icmp slt i64 %104, %106
  br i1 %107, label %100, label %91, !llvm.loop !16

108:                                              ; preds = %93, %119
  %109 = phi i64 [ %98, %93 ], [ %123, %119 ]
  %110 = phi i32 [ 0, %93 ], [ %122, %119 ]
  %111 = getelementptr inbounds i32, i32* %10, i64 %109
  %112 = icmp slt i64 %109, %99
  br i1 %112, label %113, label %119

113:                                              ; preds = %108
  %114 = getelementptr inbounds i32, i32* %7, i64 %109
  %115 = load i32, i32* %114, align 4, !tbaa !5
  br label %125

116:                                              ; preds = %119, %0, %85, %91
  %117 = phi i32 [ 0, %91 ], [ 0, %85 ], [ 0, %0 ], [ %122, %119 ]
  %118 = call nonnull align 8 dereferenceable(8) %"class.std::basic_ostream"* @_ZNSolsEi(%"class.std::basic_ostream"* nonnull align 8 dereferenceable(8) @_ZSt4cout, i32 %117)
  call void @llvm.stackrestore(i8* %6)
  call void @llvm.lifetime.end.p0i8(i64 4, i8* nonnull %2) #7
  ret i32 0

119:                                              ; preds = %137, %108
  %120 = load i32, i32* %111, align 4, !tbaa !5
  %121 = icmp slt i32 %110, %120
  %122 = select i1 %121, i32 %120, i32 %110
  %123 = add nsw i64 %109, -1
  %124 = icmp sgt i64 %109, 0
  br i1 %124, label %108, label %116, !llvm.loop !17

125:                                              ; preds = %113, %137
  %126 = phi i64 [ %96, %113 ], [ %138, %137 ]
  %127 = getelementptr inbounds i32, i32* %7, i64 %126
  %128 = load i32, i32* %127, align 4, !tbaa !5
  %129 = icmp slt i32 %115, %128
  br i1 %129, label %137, label %130

130:                                              ; preds = %125
  %131 = load i32, i32* %111, align 4, !tbaa !5
  %132 = getelementptr inbounds i32, i32* %10, i64 %126
  %133 = load i32, i32* %132, align 4, !tbaa !5
  %134 = icmp sgt i32 %131, %133
  br i1 %134, label %137, label %135

135:                                              ; preds = %130
  %136 = add nsw i32 %133, 1
  store i32 %136, i32* %111, align 4, !tbaa !5
  br label %137

137:                                              ; preds = %125, %130, %135
  %138 = add nsw i64 %126, -1
  %139 = icmp sgt i64 %138, %109
  br i1 %139, label %125, label %119, !llvm.loop !18
}

; Function Attrs: argmemonly mustprogress nofree nosync nounwind willreturn
declare void @llvm.lifetime.start.p0i8(i64 immarg, i8* nocapture) #4

declare nonnull align 8 dereferenceable(16) %"class.std::basic_istream"* @_ZNSirsERi(%"class.std::basic_istream"* nonnull align 8 dereferenceable(16), i32* nonnull align 4 dereferenceable(4)) local_unnamed_addr #0

; Function Attrs: mustprogress nofree nosync nounwind willreturn
declare i8* @llvm.stacksave() #5

; Function Attrs: argmemonly mustprogress nofree nosync nounwind willreturn
declare void @llvm.lifetime.end.p0i8(i64 immarg, i8* nocapture) #4

declare nonnull align 8 dereferenceable(8) %"class.std::basic_ostream"* @_ZNSolsEi(%"class.std::basic_ostream"* nonnull align 8 dereferenceable(8), i32) local_unnamed_addr #0

; Function Attrs: mustprogress nofree nosync nounwind willreturn
declare void @llvm.stackrestore(i8*) #5

; Function Attrs: sspstrong uwtable
define internal void @_GLOBAL__sub_I_578.cpp() #6 section ".text.startup" {
  tail call void @_ZNSt8ios_base4InitC1Ev(%"class.std::ios_base::Init"* nonnull align 1 dereferenceable(1) @_ZStL8__ioinit)
  %1 = tail call i32 @__cxa_atexit(void (i8*)* bitcast (void (%"class.std::ios_base::Init"*)* @_ZNSt8ios_base4InitD1Ev to void (i8*)*), i8* getelementptr inbounds (%"class.std::ios_base::Init", %"class.std::ios_base::Init"* @_ZStL8__ioinit, i64 0, i32 0), i8* nonnull @__dso_handle) #7
  ret void
}


!llvm.module.flags = !{!0, !1, !2, !3}
!llvm.ident = !{!4}

!0 = !{i32 1, !"wchar_size", i32 4}
!1 = !{i32 7, !"PIC Level", i32 2}
!2 = !{i32 7, !"PIE Level", i32 2}
!3 = !{i32 7, !"uwtable", i32 1}
!4 = !{!"clang version 13.0.0"}
!5 = !{!6, !6, i64 0}
!6 = !{!"int", !7, i64 0}
!7 = !{!"omnipotent char", !8, i64 0}
!8 = !{!"Simple C++ TBAA"}
!9 = distinct !{!9, !10, !11}
!10 = !{!"llvm.loop.mustprogress"}
!11 = !{!"llvm.loop.isvectorized", i32 1}
!12 = distinct !{!12, !13}
!13 = !{!"llvm.loop.unroll.disable"}
!14 = distinct !{!14, !10, !15, !11}
!15 = !{!"llvm.loop.unroll.runtime.disable"}
!16 = distinct !{!16, !10}
!17 = distinct !{!17, !10}
!18 = distinct !{!18, !10}
